; Function Attrs: mustprogress uwtable
define hidden void @_ZN12mpbq_manager4mul2ER4mpbq(ptr noundef nonnull readonly align 8 captures(none) dereferenceable(208) %0, ptr noundef nonnull align 8 dereferenceable(20) %1) local_unnamed_addr #3 align 2 {
  %3 = getelementptr inbounds nuw i8, ptr %1, i64 16
  %4 = load i32, ptr %3, align 8, !tbaa !13
  %5 = icmp eq i32 %4, 0
  br i1 %5, label %6, label %8

6:                                                ; preds = %2
  %7 = load ptr, ptr %0, align 8, !tbaa !26
  tail call void @_ZN11mpz_managerILb0EE5mul2kER3mpzj(ptr noundef nonnull align 8 dereferenceable(600) %7, ptr noundef nonnull align 8 dereferenceable(16) %1, i32 noundef 1)
  br label %10

8:                                                ; preds = %2
  %9 = add i32 %4, -1
  store i32 %9, ptr %3, align 8, !tbaa !13
  br label %10

10:                                               ; preds = %8, %6
  ret void
}